target datalayout = "e-m:e-p270:32:32-p271:32:32-p272:64:64-i64:64-i128:128-f80:128-n8:16:32:64-S128"
target triple = "x86_64-pc-linux-gnu"

%struct.tsi_peer = type { ptr, i64 }

; Function Attrs: mustprogress uwtable
define noundef i32 @_Z18tsi_construct_peermP8tsi_peer(i64 noundef %0, ptr noundef %1) #5 {
  %3 = alloca i64, align 8
  %4 = alloca ptr, align 8
  store i64 %0, ptr %3, align 8, !tbaa !45
  store ptr %1, ptr %4, align 8, !tbaa !38
  %5 = load ptr, ptr %4, align 8, !tbaa !38
  call void @llvm.memset.p0.i64(ptr align 8 %5, i8 0, i64 16, i1 false)
  %6 = load i64, ptr %3, align 8, !tbaa !45
  %7 = icmp ugt i64 %6, 0
  br i1 %7, label %8, label %17

8:                                                ; preds = %2
  %9 = load i64, ptr %3, align 8, !tbaa !45
  %10 = mul i64 %9, 24
  %11 = call ptr @gpr_zalloc(i64 noundef %10)
  %12 = load ptr, ptr %4, align 8, !tbaa !38
  %13 = getelementptr inbounds nuw %struct.tsi_peer, ptr %12, i32 0, i32 0
  store ptr %11, ptr %13, align 8, !tbaa !76
  %14 = load i64, ptr %3, align 8, !tbaa !45
  %15 = load ptr, ptr %4, align 8, !tbaa !38
  %16 = getelementptr inbounds nuw %struct.tsi_peer, ptr %15, i32 0, i32 1
  store i64 %14, ptr %16, align 8, !tbaa !78
  br label %17

17:                                               ; preds = %8, %2
  ret i32 0
}