; Function Attrs: mustprogress uwtable
define noundef i32 @_Z18tsi_construct_peermP8tsi_peer(i64 noundef %0, ptr noundef writeonly captures(none) initializes((0, 16)) %1) local_unnamed_addr #4 {
  tail call void @llvm.memset.p0.i64(ptr noundef nonnull align 8 dereferenceable(16) %1, i8 0, i64 16, i1 false)
  %.not = icmp eq i64 %0, 0
  br i1 %.not, label %7, label %3

3:                                                ; preds = %2
  %4 = mul i64 %0, 24
  %5 = tail call ptr @gpr_zalloc(i64 noundef %4)
  store ptr %5, ptr %1, align 8, !tbaa !50
  %6 = getelementptr inbounds nuw i8, ptr %1, i64 8
  store i64 %0, ptr %6, align 8, !tbaa !53
  br label %7

7:                                                ; preds = %3, %2
  ret i32 0
}